target datalayout = "e-m:e-p270:32:32-p271:32:32-p272:64:64-i64:64-i128:128-f80:128-n8:16:32:64-S128"
target triple = "x86_64-pc-linux-gnu"

%struct.CRYPTO_REF_COUNT = type { i32 }
%struct.bio_st = type { ptr, ptr, ptr, ptr, ptr, i32, i32, i32, i32, i32, ptr, ptr, ptr, %struct.CRYPTO_REF_COUNT, i64, i64, %struct.crypto_ex_data_st }
%struct.crypto_ex_data_st = type { ptr, ptr }
%struct.bio_method_st = type { i32, ptr, ptr, ptr, ptr, ptr, ptr, ptr, ptr, ptr, ptr, ptr, ptr, ptr }

@.str = private unnamed_addr constant [32 x i8] c"../openssl/crypto/bio/bio_lib.c\00", align 1
@__func__.BIO_ctrl = private unnamed_addr constant [9 x i8] c"BIO_ctrl\00", align 1

; Function Attrs: nounwind uwtable
define internal i64 @bio_call_callback(ptr noundef %0, i32 noundef %1, ptr noundef %2, i64 noundef %3, i32 noundef %4, i64 noundef %5, i64 noundef %6, ptr noundef %7) #0 {
  %9 = alloca i64, align 8
  %10 = alloca ptr, align 8
  %11 = alloca i32, align 4
  %12 = alloca ptr, align 8
  %13 = alloca i64, align 8
  %14 = alloca i32, align 4
  %15 = alloca i64, align 8
  %16 = alloca i64, align 8
  %17 = alloca ptr, align 8
  %18 = alloca i64, align 8
  %19 = alloca i32, align 4
  %20 = alloca i32, align 4
  store ptr %0, ptr %10, align 8, !tbaa !10
  store i32 %1, ptr %11, align 4, !tbaa !26
  store ptr %2, ptr %12, align 8, !tbaa !33
  store i64 %3, ptr %13, align 8, !tbaa !34
  store i32 %4, ptr %14, align 4, !tbaa !26
  store i64 %5, ptr %15, align 8, !tbaa !34
  store i64 %6, ptr %16, align 8, !tbaa !34
  store ptr %7, ptr %17, align 8, !tbaa !35
  call void @llvm.lifetime.start.p0(i64 8, ptr %18) #5
  %21 = load i64, ptr %16, align 8, !tbaa !34
  store i64 %21, ptr %18, align 8, !tbaa !34
  call void @llvm.lifetime.start.p0(i64 4, ptr %19) #5
  %22 = load ptr, ptr %10, align 8, !tbaa !10
  %23 = getelementptr inbounds nuw %struct.bio_st, ptr %22, i32 0, i32 3
  %24 = load ptr, ptr %23, align 8, !tbaa !29
  %25 = icmp ne ptr %24, null
  br i1 %25, label %26, label %40

26:                                               ; preds = %8
  %27 = load ptr, ptr %10, align 8, !tbaa !10
  %28 = getelementptr inbounds nuw %struct.bio_st, ptr %27, i32 0, i32 3
  %29 = load ptr, ptr %28, align 8, !tbaa !29
  %30 = load ptr, ptr %10, align 8, !tbaa !10
  %31 = load i32, ptr %11, align 4, !tbaa !26
  %32 = load ptr, ptr %12, align 8, !tbaa !33
  %33 = load i64, ptr %13, align 8, !tbaa !34
  %34 = load i32, ptr %14, align 4, !tbaa !26
  %35 = load i64, ptr %15, align 8, !tbaa !34
  %36 = load i64, ptr %16, align 8, !tbaa !34
  %37 = trunc i64 %36 to i32
  %38 = load ptr, ptr %17, align 8, !tbaa !35
  %39 = call i64 %29(ptr noundef %30, i32 noundef %31, ptr noundef %32, i64 noundef %33, i32 noundef %34, i64 noundef %35, i32 noundef %37, ptr noundef %38)
  store i64 %39, ptr %9, align 8
  store i32 1, ptr %20, align 4
  br label %101

40:                                               ; preds = %8
  %41 = load i32, ptr %11, align 4, !tbaa !26
  %42 = and i32 %41, -129
  store i32 %42, ptr %19, align 4, !tbaa !26
  %43 = load i32, ptr %19, align 4, !tbaa !26
  %44 = icmp eq i32 %43, 2
  br i1 %44, label %51, label %45

45:                                               ; preds = %40
  %46 = load i32, ptr %19, align 4, !tbaa !26
  %47 = icmp eq i32 %46, 3
  br i1 %47, label %51, label %48

48:                                               ; preds = %45
  %49 = load i32, ptr %19, align 4, !tbaa !26
  %50 = icmp eq i32 %49, 5
  br i1 %50, label %51, label %58

51:                                               ; preds = %48, %45, %40
  %52 = load i64, ptr %13, align 8, !tbaa !34
  %53 = icmp ugt i64 %52, 2147483647
  br i1 %53, label %54, label %55

54:                                               ; preds = %51
  store i64 -1, ptr %9, align 8
  store i32 1, ptr %20, align 4
  br label %101

55:                                               ; preds = %51
  %56 = load i64, ptr %13, align 8, !tbaa !34
  %57 = trunc i64 %56 to i32
  store i32 %57, ptr %14, align 4, !tbaa !26
  br label %58

58:                                               ; preds = %55, %48
  %59 = load i64, ptr %16, align 8, !tbaa !34
  %60 = icmp sgt i64 %59, 0
  br i1 %60, label %61, label %76

61:                                               ; preds = %58
  %62 = load i32, ptr %11, align 4, !tbaa !26
  %63 = and i32 %62, 128
  %64 = icmp ne i32 %63, 0
  br i1 %64, label %65, label %76

65:                                               ; preds = %61
  %66 = load i32, ptr %19, align 4, !tbaa !26
  %67 = icmp ne i32 %66, 6
  br i1 %67, label %68, label %76

68:                                               ; preds = %65
  %69 = load ptr, ptr %17, align 8, !tbaa !35
  %70 = load i64, ptr %69, align 8, !tbaa !34
  %71 = icmp ugt i64 %70, 2147483647
  br i1 %71, label %72, label %73

72:                                               ; preds = %68
  store i64 -1, ptr %9, align 8
  store i32 1, ptr %20, align 4
  br label %101

73:                                               ; preds = %68
  %74 = load ptr, ptr %17, align 8, !tbaa !35
  %75 = load i64, ptr %74, align 8, !tbaa !34
  store i64 %75, ptr %16, align 8, !tbaa !34
  br label %76

76:                                               ; preds = %73, %65, %61, %58
  %77 = load ptr, ptr %10, align 8, !tbaa !10
  %78 = getelementptr inbounds nuw %struct.bio_st, ptr %77, i32 0, i32 2
  %79 = load ptr, ptr %78, align 8, !tbaa !28
  %80 = load ptr, ptr %10, align 8, !tbaa !10
  %81 = load i32, ptr %11, align 4, !tbaa !26
  %82 = load ptr, ptr %12, align 8, !tbaa !33
  %83 = load i32, ptr %14, align 4, !tbaa !26
  %84 = load i64, ptr %15, align 8, !tbaa !34
  %85 = load i64, ptr %16, align 8, !tbaa !34
  %86 = call i64 %79(ptr noundef %80, i32 noundef %81, ptr noundef %82, i32 noundef %83, i64 noundef %84, i64 noundef %85)
  store i64 %86, ptr %18, align 8, !tbaa !34
  %87 = load i64, ptr %18, align 8, !tbaa !34
  %88 = icmp sgt i64 %87, 0
  br i1 %88, label %89, label %99

89:                                               ; preds = %76
  %90 = load i32, ptr %11, align 4, !tbaa !26
  %91 = and i32 %90, 128
  %92 = icmp ne i32 %91, 0
  br i1 %92, label %93, label %99

93:                                               ; preds = %89
  %94 = load i32, ptr %19, align 4, !tbaa !26
  %95 = icmp ne i32 %94, 6
  br i1 %95, label %96, label %99

96:                                               ; preds = %93
  %97 = load i64, ptr %18, align 8, !tbaa !34
  %98 = load ptr, ptr %17, align 8, !tbaa !35
  store i64 %97, ptr %98, align 8, !tbaa !34
  store i64 1, ptr %18, align 8, !tbaa !34
  br label %99

99:                                               ; preds = %96, %93, %89, %76
  %100 = load i64, ptr %18, align 8, !tbaa !34
  store i64 %100, ptr %9, align 8
  store i32 1, ptr %20, align 4
  br label %101

101:                                              ; preds = %99, %72, %54, %26
  call void @llvm.lifetime.end.p0(i64 4, ptr %19) #5
  call void @llvm.lifetime.end.p0(i64 8, ptr %18) #5
  %102 = load i64, ptr %9, align 8
  ret i64 %102
}

; Function Attrs: nounwind uwtable
define i64 @BIO_ctrl(ptr noundef %0, i32 noundef %1, i64 noundef %2, ptr noundef %3) #0 {
  %5 = alloca i64, align 8
  %6 = alloca ptr, align 8
  %7 = alloca i32, align 4
  %8 = alloca i64, align 8
  %9 = alloca ptr, align 8
  %10 = alloca i64, align 8
  %11 = alloca i32, align 4
  store ptr %0, ptr %6, align 8, !tbaa !10
  store i32 %1, ptr %7, align 4, !tbaa !26
  store i64 %2, ptr %8, align 8, !tbaa !34
  store ptr %3, ptr %9, align 8, !tbaa !25
  call void @llvm.lifetime.start.p0(i64 8, ptr %10) #5
  %12 = load ptr, ptr %6, align 8, !tbaa !10
  %13 = icmp eq ptr %12, null
  br i1 %13, label %14, label %15

14:                                               ; preds = %4
  store i64 -1, ptr %5, align 8
  store i32 1, ptr %11, align 4
  br label %78

15:                                               ; preds = %4
  %16 = load ptr, ptr %6, align 8, !tbaa !10
  %17 = getelementptr inbounds nuw %struct.bio_st, ptr %16, i32 0, i32 1
  %18 = load ptr, ptr %17, align 8, !tbaa !20
  %19 = icmp eq ptr %18, null
  br i1 %19, label %27, label %20

20:                                               ; preds = %15
  %21 = load ptr, ptr %6, align 8, !tbaa !10
  %22 = getelementptr inbounds nuw %struct.bio_st, ptr %21, i32 0, i32 1
  %23 = load ptr, ptr %22, align 8, !tbaa !20
  %24 = getelementptr inbounds nuw %struct.bio_method_st, ptr %23, i32 0, i32 8
  %25 = load ptr, ptr %24, align 8, !tbaa !58
  %26 = icmp eq ptr %25, null
  br i1 %26, label %27, label %28

27:                                               ; preds = %20, %15
  call void @ERR_new()
  call void @ERR_set_debug(ptr noundef @.str, i32 noundef 667, ptr noundef @__func__.BIO_ctrl)
  call void (i32, i32, ptr, ...) @ERR_set_error(i32 noundef 32, i32 noundef 121, ptr noundef null)
  store i64 -2, ptr %5, align 8
  store i32 1, ptr %11, align 4
  br label %78

28:                                               ; preds = %20
  %29 = load ptr, ptr %6, align 8, !tbaa !10
  %30 = getelementptr inbounds nuw %struct.bio_st, ptr %29, i32 0, i32 2
  %31 = load ptr, ptr %30, align 8, !tbaa !28
  %32 = icmp ne ptr %31, null
  br i1 %32, label %38, label %33

33:                                               ; preds = %28
  %34 = load ptr, ptr %6, align 8, !tbaa !10
  %35 = getelementptr inbounds nuw %struct.bio_st, ptr %34, i32 0, i32 3
  %36 = load ptr, ptr %35, align 8, !tbaa !29
  %37 = icmp ne ptr %36, null
  br i1 %37, label %38, label %49

38:                                               ; preds = %33, %28
  %39 = load ptr, ptr %6, align 8, !tbaa !10
  %40 = load ptr, ptr %9, align 8, !tbaa !25
  %41 = load i32, ptr %7, align 4, !tbaa !26
  %42 = load i64, ptr %8, align 8, !tbaa !34
  %43 = call i64 @bio_call_callback(ptr noundef %39, i32 noundef 6, ptr noundef %40, i64 noundef 0, i32 noundef %41, i64 noundef %42, i64 noundef 1, ptr noundef null)
  store i64 %43, ptr %10, align 8, !tbaa !34
  %44 = load i64, ptr %10, align 8, !tbaa !34
  %45 = icmp sle i64 %44, 0
  br i1 %45, label %46, label %48

46:                                               ; preds = %38
  %47 = load i64, ptr %10, align 8, !tbaa !34
  store i64 %47, ptr %5, align 8
  store i32 1, ptr %11, align 4
  br label %78

48:                                               ; preds = %38
  br label %49

49:                                               ; preds = %48, %33
  %50 = load ptr, ptr %6, align 8, !tbaa !10
  %51 = getelementptr inbounds nuw %struct.bio_st, ptr %50, i32 0, i32 1
  %52 = load ptr, ptr %51, align 8, !tbaa !20
  %53 = getelementptr inbounds nuw %struct.bio_method_st, ptr %52, i32 0, i32 8
  %54 = load ptr, ptr %53, align 8, !tbaa !58
  %55 = load ptr, ptr %6, align 8, !tbaa !10
  %56 = load i32, ptr %7, align 4, !tbaa !26
  %57 = load i64, ptr %8, align 8, !tbaa !34
  %58 = load ptr, ptr %9, align 8, !tbaa !25
  %59 = call i64 %54(ptr noundef %55, i32 noundef %56, i64 noundef %57, ptr noundef %58)
  store i64 %59, ptr %10, align 8, !tbaa !34
  %60 = load ptr, ptr %6, align 8, !tbaa !10
  %61 = getelementptr inbounds nuw %struct.bio_st, ptr %60, i32 0, i32 2
  %62 = load ptr, ptr %61, align 8, !tbaa !28
  %63 = icmp ne ptr %62, null
  br i1 %63, label %69, label %64

64:                                               ; preds = %49
  %65 = load ptr, ptr %6, align 8, !tbaa !10
  %66 = getelementptr inbounds nuw %struct.bio_st, ptr %65, i32 0, i32 3
  %67 = load ptr, ptr %66, align 8, !tbaa !29
  %68 = icmp ne ptr %67, null
  br i1 %68, label %69, label %76

69:                                               ; preds = %64, %49
  %70 = load ptr, ptr %6, align 8, !tbaa !10
  %71 = load ptr, ptr %9, align 8, !tbaa !25
  %72 = load i32, ptr %7, align 4, !tbaa !26
  %73 = load i64, ptr %8, align 8, !tbaa !34
  %74 = load i64, ptr %10, align 8, !tbaa !34
  %75 = call i64 @bio_call_callback(ptr noundef %70, i32 noundef 134, ptr noundef %71, i64 noundef 0, i32 noundef %72, i64 noundef %73, i64 noundef %74, ptr noundef null)
  store i64 %75, ptr %10, align 8, !tbaa !34
  br label %76

76:                                               ; preds = %69, %64
  %77 = load i64, ptr %10, align 8, !tbaa !34
  store i64 %77, ptr %5, align 8
  store i32 1, ptr %11, align 4
  br label %78

78:                                               ; preds = %76, %46, %27, %14
  call void @llvm.lifetime.end.p0(i64 8, ptr %10) #5
  %79 = load i64, ptr %5, align 8
  ret i64 %79
}