; Function Attrs: nounwind uwtable
define i64 @BIO_ctrl(ptr noundef %0, i32 noundef %1, i64 noundef %2, ptr noundef %3) local_unnamed_addr #0 {
  %5 = icmp eq ptr %0, null
  br i1 %5, label %bio_call_callback.exit33, label %6

6:                                                ; preds = %4
  %7 = getelementptr inbounds nuw i8, ptr %0, i64 8
  %8 = load ptr, ptr %7, align 8, !tbaa !17
  %9 = icmp eq ptr %8, null
  br i1 %9, label %14, label %10

10:                                               ; preds = %6
  %11 = getelementptr inbounds nuw i8, ptr %8, i64 64
  %12 = load ptr, ptr %11, align 8, !tbaa !46
  %13 = icmp eq ptr %12, null
  br i1 %13, label %14, label %15

14:                                               ; preds = %10, %6
  tail call void @ERR_new() #14
  tail call void @ERR_set_debug(ptr noundef nonnull @.str, i32 noundef 667, ptr noundef nonnull @__func__.BIO_ctrl) #14
  tail call void (i32, i32, ptr, ...) @ERR_set_error(i32 noundef 32, i32 noundef 121, ptr noundef null) #14
  br label %bio_call_callback.exit33

15:                                               ; preds = %10
  %16 = getelementptr inbounds nuw i8, ptr %0, i64 16
  %17 = load ptr, ptr %16, align 8, !tbaa !23
  %.not = icmp eq ptr %17, null
  %18 = getelementptr inbounds nuw i8, ptr %0, i64 24
  %19 = load ptr, ptr %18, align 8, !tbaa !24
  %.not28 = icmp eq ptr %19, null
  br i1 %.not, label %20, label %21

20:                                               ; preds = %15
  br i1 %.not28, label %26, label %.thread

21:                                               ; preds = %15
  br i1 %.not28, label %23, label %.thread

.thread:                                          ; preds = %20, %21
  %22 = tail call i64 %19(ptr noundef nonnull %0, i32 noundef 6, ptr noundef %3, i64 noundef 0, i32 noundef %1, i64 noundef %2, i32 noundef 1, ptr noundef null) #14
  br label %bio_call_callback.exit

23:                                               ; preds = %21
  %24 = tail call i64 %17(ptr noundef nonnull %0, i32 noundef 6, ptr noundef %3, i32 noundef %1, i64 noundef %2, i64 noundef 1) #14
  br label %bio_call_callback.exit

bio_call_callback.exit:                           ; preds = %23, %.thread
  %.0.i = phi i64 [ %22, %.thread ], [ %24, %23 ]
  %25 = icmp slt i64 %.0.i, 1
  br i1 %25, label %bio_call_callback.exit33, label %bio_call_callback.exit._crit_edge

bio_call_callback.exit._crit_edge:                ; preds = %bio_call_callback.exit
  %.pre34 = load ptr, ptr %7, align 8, !tbaa !17
  %.phi.trans.insert35 = getelementptr inbounds nuw i8, ptr %.pre34, i64 64
  %.pre36 = load ptr, ptr %.phi.trans.insert35, align 8, !tbaa !46
  br label %26

26:                                               ; preds = %bio_call_callback.exit._crit_edge, %20
  %27 = phi ptr [ %.pre36, %bio_call_callback.exit._crit_edge ], [ %12, %20 ]
  %28 = tail call i64 %27(ptr noundef nonnull %0, i32 noundef %1, i64 noundef %2, ptr noundef %3) #14
  %29 = load ptr, ptr %16, align 8, !tbaa !23
  %.not29 = icmp eq ptr %29, null
  %30 = getelementptr inbounds nuw i8, ptr %0, i64 24
  %31 = load ptr, ptr %30, align 8, !tbaa !24
  %.not30 = icmp eq ptr %31, null
  br i1 %.not29, label %32, label %33

32:                                               ; preds = %26
  br i1 %.not30, label %bio_call_callback.exit33, label %.thread41

33:                                               ; preds = %26
  br i1 %.not30, label %36, label %.thread41

.thread41:                                        ; preds = %32, %33
  %34 = trunc i64 %28 to i32
  %35 = tail call i64 %31(ptr noundef nonnull %0, i32 noundef 134, ptr noundef %3, i64 noundef 0, i32 noundef %1, i64 noundef %2, i32 noundef %34, ptr noundef null) #14
  br label %bio_call_callback.exit33

36:                                               ; preds = %33
  %37 = tail call i64 %29(ptr noundef nonnull %0, i32 noundef 134, ptr noundef %3, i32 noundef %1, i64 noundef %2, i64 noundef %28) #14
  br label %bio_call_callback.exit33

bio_call_callback.exit33:                         ; preds = %36, %.thread41, %32, %bio_call_callback.exit, %4, %14
  %.024 = phi i64 [ -2, %14 ], [ -1, %4 ], [ %.0.i, %bio_call_callback.exit ], [ %28, %32 ], [ %35, %.thread41 ], [ %37, %36 ]
  ret i64 %.024
}